; Function Attrs: mustprogress nofree norecurse nosync nounwind willreturn memory(argmem: read) uwtable
define dso_local noundef zeroext i8 @_ZNK4llvm6object7DirectX14PSVRuntimeInfo17getSigOutputCountEv(ptr nocapture noundef nonnull readonly align 8 dereferenceable(520) %0) local_unnamed_addr #4 align 2 {
  %2 = getelementptr inbounds i8, ptr %0, i64 72
  %3 = load i8, ptr %2, align 8
  switch i8 %3, label %13 [
    i8 4, label %4
    i8 3, label %7
    i8 2, label %10
  ]

4:                                                ; preds = %1
  %5 = getelementptr inbounds i8, ptr %0, i64 49
  %6 = load i8, ptr %5, align 1
  br label %13

7:                                                ; preds = %1
  %8 = getelementptr inbounds i8, ptr %0, i64 49
  %9 = load i8, ptr %8, align 1
  br label %13

10:                                               ; preds = %1
  %11 = getelementptr inbounds i8, ptr %0, i64 49
  %12 = load i8, ptr %11, align 1
  br label %13

13:                                               ; preds = %1, %10, %7, %4
  %.0 = phi i8 [ %6, %4 ], [ %9, %7 ], [ %12, %10 ], [ 0, %1 ]
  ret i8 %.0
}